target datalayout = "e-m:e-p270:32:32-p271:32:32-p272:64:64-i64:64-i128:128-f80:128-n8:16:32:64-S128"
target triple = "x86_64-pc-linux-gnu"

@m_table_leap = internal global [13 x i32] [i32 -1, i32 6, i32 2, i32 3, i32 6, i32 1, i32 4, i32 6, i32 2, i32 5, i32 0, i32 3, i32 5], align 16
@m_table_common = internal global [13 x i32] [i32 -1, i32 0, i32 3, i32 3, i32 6, i32 1, i32 4, i32 6, i32 2, i32 5, i32 0, i32 3, i32 5], align 16

; Function Attrs: nounwind uwtable
define internal i64 @century_value(i64 noundef %0) #0 {
  %2 = alloca i64, align 8
  store i64 %0, ptr %2, align 8, !tbaa !4
  %3 = load i64, ptr %2, align 8, !tbaa !4
  %4 = call i64 @positive_mod(i64 noundef %3, i64 noundef 4)
  %5 = mul i64 %4, 2
  %6 = sub i64 6, %5
  ret i64 %6
}

; Function Attrs: nounwind uwtable
define internal i64 @positive_mod(i64 noundef %0, i64 noundef %1) #0 {
  %3 = alloca i64, align 8
  %4 = alloca i64, align 8
  %5 = alloca i64, align 8
  store i64 %0, ptr %3, align 8, !tbaa !4
  store i64 %1, ptr %4, align 8, !tbaa !4
  call void @llvm.lifetime.start.p0(i64 8, ptr %5) #2
  %6 = load i64, ptr %3, align 8, !tbaa !4
  %7 = load i64, ptr %4, align 8, !tbaa !4
  %8 = srem i64 %6, %7
  store i64 %8, ptr %5, align 8, !tbaa !4
  %9 = load i64, ptr %5, align 8, !tbaa !4
  %10 = icmp slt i64 %9, 0
  br i1 %10, label %11, label %15

11:                                               ; preds = %2
  %12 = load i64, ptr %4, align 8, !tbaa !4
  %13 = load i64, ptr %5, align 8, !tbaa !4
  %14 = add i64 %13, %12
  store i64 %14, ptr %5, align 8, !tbaa !4
  br label %15

15:                                               ; preds = %11, %2
  %16 = load i64, ptr %5, align 8, !tbaa !4
  call void @llvm.lifetime.end.p0(i64 8, ptr %5) #2
  ret i64 %16
}

; Function Attrs: nounwind uwtable
define internal i64 @timelib_day_of_week_ex(i64 noundef %0, i64 noundef %1, i64 noundef %2, i32 noundef %3) #0 {
  %5 = alloca i64, align 8
  %6 = alloca i64, align 8
  %7 = alloca i64, align 8
  %8 = alloca i32, align 4
  %9 = alloca i64, align 8
  %10 = alloca i64, align 8
  %11 = alloca i64, align 8
  %12 = alloca i64, align 8
  store i64 %0, ptr %5, align 8, !tbaa !4
  store i64 %1, ptr %6, align 8, !tbaa !4
  store i64 %2, ptr %7, align 8, !tbaa !4
  store i32 %3, ptr %8, align 4, !tbaa !8
  call void @llvm.lifetime.start.p0(i64 8, ptr %9) #2
  call void @llvm.lifetime.start.p0(i64 8, ptr %10) #2
  call void @llvm.lifetime.start.p0(i64 8, ptr %11) #2
  call void @llvm.lifetime.start.p0(i64 8, ptr %12) #2
  %13 = load i64, ptr %5, align 8, !tbaa !4
  %14 = call i64 @positive_mod(i64 noundef %13, i64 noundef 400)
  %15 = sdiv i64 %14, 100
  %16 = call i64 @century_value(i64 noundef %15)
  store i64 %16, ptr %9, align 8, !tbaa !4
  %17 = load i64, ptr %5, align 8, !tbaa !4
  %18 = call i64 @positive_mod(i64 noundef %17, i64 noundef 100)
  store i64 %18, ptr %10, align 8, !tbaa !4
  %19 = load i64, ptr %5, align 8, !tbaa !4
  %20 = srem i64 %19, 4
  %21 = icmp eq i64 %20, 0
  br i1 %21, label %22, label %34

22:                                               ; preds = %4
  %23 = load i64, ptr %5, align 8, !tbaa !4
  %24 = srem i64 %23, 100
  %25 = icmp ne i64 %24, 0
  br i1 %25, label %30, label %26

26:                                               ; preds = %22
  %27 = load i64, ptr %5, align 8, !tbaa !4
  %28 = srem i64 %27, 400
  %29 = icmp eq i64 %28, 0
  br i1 %29, label %30, label %34

30:                                               ; preds = %26, %22
  %31 = load i64, ptr %6, align 8, !tbaa !4
  %32 = getelementptr inbounds [13 x i32], ptr @m_table_leap, i64 0, i64 %31
  %33 = load i32, ptr %32, align 4, !tbaa !8
  br label %38

34:                                               ; preds = %26, %4
  %35 = load i64, ptr %6, align 8, !tbaa !4
  %36 = getelementptr inbounds [13 x i32], ptr @m_table_common, i64 0, i64 %35
  %37 = load i32, ptr %36, align 4, !tbaa !8
  br label %38

38:                                               ; preds = %34, %30
  %39 = phi i32 [ %33, %30 ], [ %37, %34 ]
  %40 = sext i32 %39 to i64
  store i64 %40, ptr %11, align 8, !tbaa !4
  %41 = load i64, ptr %9, align 8, !tbaa !4
  %42 = load i64, ptr %10, align 8, !tbaa !4
  %43 = add i64 %41, %42
  %44 = load i64, ptr %11, align 8, !tbaa !4
  %45 = add i64 %43, %44
  %46 = load i64, ptr %10, align 8, !tbaa !4
  %47 = sdiv i64 %46, 4
  %48 = add i64 %45, %47
  %49 = load i64, ptr %7, align 8, !tbaa !4
  %50 = add i64 %48, %49
  %51 = call i64 @positive_mod(i64 noundef %50, i64 noundef 7)
  store i64 %51, ptr %12, align 8, !tbaa !4
  %52 = load i32, ptr %8, align 4, !tbaa !8
  %53 = icmp ne i32 %52, 0
  br i1 %53, label %54, label %59

54:                                               ; preds = %38
  %55 = load i64, ptr %12, align 8, !tbaa !4
  %56 = icmp eq i64 %55, 0
  br i1 %56, label %57, label %58

57:                                               ; preds = %54
  store i64 7, ptr %12, align 8, !tbaa !4
  br label %58

58:                                               ; preds = %57, %54
  br label %59

59:                                               ; preds = %58, %38
  %60 = load i64, ptr %12, align 8, !tbaa !4
  call void @llvm.lifetime.end.p0(i64 8, ptr %12) #2
  call void @llvm.lifetime.end.p0(i64 8, ptr %11) #2
  call void @llvm.lifetime.end.p0(i64 8, ptr %10) #2
  call void @llvm.lifetime.end.p0(i64 8, ptr %9) #2
  ret i64 %60
}

; Function Attrs: nounwind uwtable
define hidden i64 @timelib_day_of_week(i64 noundef %0, i64 noundef %1, i64 noundef %2) #0 {
  %4 = alloca i64, align 8
  %5 = alloca i64, align 8
  %6 = alloca i64, align 8
  store i64 %0, ptr %4, align 8, !tbaa !4
  store i64 %1, ptr %5, align 8, !tbaa !4
  store i64 %2, ptr %6, align 8, !tbaa !4
  %7 = load i64, ptr %4, align 8, !tbaa !4
  %8 = load i64, ptr %5, align 8, !tbaa !4
  %9 = load i64, ptr %6, align 8, !tbaa !4
  %10 = call i64 @timelib_day_of_week_ex(i64 noundef %7, i64 noundef %8, i64 noundef %9, i32 noundef 0)
  ret i64 %10
}

; Function Attrs: nounwind uwtable
define hidden i64 @timelib_daynr_from_weeknr(i64 noundef %0, i64 noundef %1, i64 noundef %2) #0 {
  %4 = alloca i64, align 8
  %5 = alloca i64, align 8
  %6 = alloca i64, align 8
  %7 = alloca i64, align 8
  %8 = alloca i64, align 8
  store i64 %0, ptr %4, align 8, !tbaa !4
  store i64 %1, ptr %5, align 8, !tbaa !4
  store i64 %2, ptr %6, align 8, !tbaa !4
  call void @llvm.lifetime.start.p0(i64 8, ptr %7) #2
  call void @llvm.lifetime.start.p0(i64 8, ptr %8) #2
  %9 = load i64, ptr %4, align 8, !tbaa !4
  %10 = call i64 @timelib_day_of_week(i64 noundef %9, i64 noundef 1, i64 noundef 1)
  store i64 %10, ptr %7, align 8, !tbaa !4
  %11 = load i64, ptr %7, align 8, !tbaa !4
  %12 = icmp sgt i64 %11, 4
  br i1 %12, label %13, label %16

13:                                               ; preds = %3
  %14 = load i64, ptr %7, align 8, !tbaa !4
  %15 = sub i64 %14, 7
  br label %18

16:                                               ; preds = %3
  %17 = load i64, ptr %7, align 8, !tbaa !4
  br label %18

18:                                               ; preds = %16, %13
  %19 = phi i64 [ %15, %13 ], [ %17, %16 ]
  %20 = sub i64 0, %19
  store i64 %20, ptr %8, align 8, !tbaa !4
  %21 = load i64, ptr %8, align 8, !tbaa !4
  %22 = load i64, ptr %5, align 8, !tbaa !4
  %23 = sub i64 %22, 1
  %24 = mul i64 %23, 7
  %25 = add i64 %21, %24
  %26 = load i64, ptr %6, align 8, !tbaa !4
  %27 = add i64 %25, %26
  call void @llvm.lifetime.end.p0(i64 8, ptr %8) #2
  call void @llvm.lifetime.end.p0(i64 8, ptr %7) #2
  ret i64 %27
}