; Function Attrs: mustprogress nofree norecurse nosync nounwind willreturn memory(none) uwtable
define hidden i64 @timelib_daynr_from_weeknr(i64 noundef %0, i64 noundef %1, i64 noundef %2) local_unnamed_addr #0 {
  %4 = srem i64 %0, 400
  %5 = srem i64 %0, 100
  %6 = and i64 %0, 3
  %7 = icmp eq i64 %6, 0
  br i1 %7, label %8, label %10

8:                                                ; preds = %3
  %.not.i.i = icmp ne i64 %5, 0
  %9 = icmp eq i64 %4, 0
  %or.cond.i.i = or i1 %.not.i.i, %9
  br i1 %or.cond.i.i, label %timelib_day_of_week.exit, label %10

10:                                               ; preds = %8, %3
  br label %timelib_day_of_week.exit

timelib_day_of_week.exit:                         ; preds = %8, %10
  %m_table_leap.pn.i.i = phi ptr [ @m_table_common, %10 ], [ @m_table_leap, %8 ]
  %11 = icmp slt i64 %5, 0
  %12 = select i1 %11, i64 100, i64 0
  %spec.select.i17.i.i = add nsw i64 %12, %5
  %13 = icmp slt i64 %4, 0
  %14 = select i1 %13, i64 400, i64 0
  %spec.select.i.i.i = add nsw i64 %14, %4
  %.lhs.trunc.i.i = trunc nsw i64 %spec.select.i.i.i to i16
  %15 = udiv i16 %.lhs.trunc.i.i, 100
  %16 = shl nuw nsw i16 %15, 1
  %17 = zext nneg i16 %16 to i64
  %.in.i.i = getelementptr inbounds nuw i8, ptr %m_table_leap.pn.i.i, i64 4
  %18 = load i32, ptr %.in.i.i, align 4, !tbaa !4
  %19 = sext i32 %18 to i64
  %20 = lshr i64 %spec.select.i17.i.i, 2
  %21 = add nuw nsw i64 %spec.select.i17.i.i, 7
  %22 = add nuw nsw i64 %21, %20
  %23 = sub nuw nsw i64 %22, %17
  %24 = add nsw i64 %23, %19
  %25 = srem i64 %24, 7
  %26 = icmp slt i64 %25, 0
  %27 = select i1 %26, i64 7, i64 0
  %spec.select.i18.i.i = add nsw i64 %27, %25
  %28 = icmp sgt i64 %spec.select.i18.i.i, 4
  %29 = add nsw i64 %spec.select.i18.i.i, -7
  %30 = select i1 %28, i64 %29, i64 %spec.select.i18.i.i
  %31 = mul i64 %1, 7
  %32 = add i64 %31, -7
  %33 = add i64 %32, %2
  %34 = sub i64 %33, %30
  ret i64 %34
}